; Function Attrs: nounwind sspstrong uwtable
define internal i64 @ossl_ssl_get_cipher(i64 noundef %0) #0 {
  %2 = tail call ptr @rb_check_typeddata(i64 noundef %0, ptr noundef nonnull @ossl_ssl_type) #9
  %.not = icmp eq ptr %2, null
  br i1 %.not, label %3, label %5

3:                                                ; preds = %1
  %4 = load i64, ptr @rb_eRuntimeError, align 8, !tbaa !10
  tail call void (i64, ptr, ...) @ossl_raise(i64 noundef %4, ptr noundef nonnull @.str.267) #10
  unreachable

5:                                                ; preds = %1
  %6 = tail call ptr @SSL_get_current_cipher(ptr noundef nonnull %2) #9
  %.not5 = icmp eq ptr %6, null
  br i1 %.not5, label %9, label %7

7:                                                ; preds = %5
  %8 = tail call fastcc i64 @ossl_ssl_cipher_to_ary(ptr noundef nonnull %6)
  br label %9

9:                                                ; preds = %5, %7
  %10 = phi i64 [ %8, %7 ], [ 4, %5 ]
  ret i64 %10
}